target datalayout = "e-m:e-p270:32:32-p271:32:32-p272:64:64-i64:64-i128:128-f80:128-n8:16:32:64-S128"
target triple = "x86_64-unknown-linux-gnu"

%"class.std::__cxx11::basic_string" = type { %"struct.std::__cxx11::basic_string<char>::_Alloc_hider", i64, %union.anon }
%"struct.std::__cxx11::basic_string<char>::_Alloc_hider" = type { ptr }
%union.anon = type { i64, [8 x i8] }
%"struct.rocksdb::Cache::CacheItemHelper" = type { ptr, ptr, ptr, ptr, i32, ptr }
%"struct.rocksdb::InternalStats::CacheEntryRoleStats" = type <{ i64, i64, i64, i64, %"class.std::__cxx11::basic_string", %"struct.std::array", %"struct.std::array", i32, i32, i64, i64, i32, [4 x i8] }>
%"struct.std::array" = type { [14 x i64] }
%class.anon = type { ptr }

; Function Attrs: mustprogress nounwind uwtable
define linkonce_odr noundef nonnull align 8 dereferenceable(8) ptr @_ZNSt14__array_traitsImLm14EE6_S_refERA14_Kmm(ptr noundef nonnull align 8 dereferenceable(112) %__t, i64 noundef %__n) #1 comdat align 2 {
entry:
  %__t.addr = alloca ptr, align 8
  %__n.addr = alloca i64, align 8
  store ptr %__t, ptr %__t.addr, align 8
  store i64 %__n, ptr %__n.addr, align 8
  %0 = load ptr, ptr %__t.addr, align 8
  %1 = load i64, ptr %__n.addr, align 8
  %arrayidx = getelementptr inbounds [14 x i64], ptr %0, i64 0, i64 %1
  ret ptr %arrayidx
}

; Function Attrs: mustprogress nounwind uwtable
define linkonce_odr noundef nonnull align 8 dereferenceable(8) ptr @_ZNSt5arrayImLm14EEixEm(ptr noundef nonnull align 8 dereferenceable(112) %this, i64 noundef %__n) #1 comdat align 2 {
entry:
  %this.addr = alloca ptr, align 8
  %__n.addr = alloca i64, align 8
  store ptr %this, ptr %this.addr, align 8
  store i64 %__n, ptr %__n.addr, align 8
  %this1 = load ptr, ptr %this.addr, align 8
  %_M_elems = getelementptr inbounds %"struct.std::array", ptr %this1, i32 0, i32 0
  %0 = load i64, ptr %__n.addr, align 8
  %call = call noundef nonnull align 8 dereferenceable(8) ptr @_ZNSt14__array_traitsImLm14EE6_S_refERA14_Kmm(ptr noundef nonnull align 8 dereferenceable(112) %_M_elems, i64 noundef %0) #3
  ret ptr %call
}

; Function Attrs: mustprogress nounwind uwtable
define internal void @"_ZZN7rocksdb13InternalStats19CacheEntryRoleStats16GetEntryCallbackEvENK3$_0clERKNS_5SliceEPvmPKNS_5Cache15CacheItemHelperE"(ptr noundef nonnull align 8 dereferenceable(8) %this, ptr noundef nonnull align 8 dereferenceable(16) %0, ptr noundef %1, i64 noundef %charge, ptr noundef %helper) #1 align 2 {
entry:
  %this.addr = alloca ptr, align 8
  %.addr = alloca ptr, align 8
  %.addr1 = alloca ptr, align 8
  %charge.addr = alloca i64, align 8
  %helper.addr = alloca ptr, align 8
  %role_idx = alloca i64, align 8
  store ptr %this, ptr %this.addr, align 8
  store ptr %0, ptr %.addr, align 8
  store ptr %1, ptr %.addr1, align 8
  store i64 %charge, ptr %charge.addr, align 8
  store ptr %helper, ptr %helper.addr, align 8
  %this2 = load ptr, ptr %this.addr, align 8
  %2 = getelementptr inbounds %class.anon, ptr %this2, i32 0, i32 0
  %3 = load ptr, ptr %2, align 8
  %4 = load ptr, ptr %helper.addr, align 8
  %tobool = icmp ne ptr %4, null
  br i1 %tobool, label %cond.true, label %cond.false

cond.true:                                        ; preds = %entry
  %5 = load ptr, ptr %helper.addr, align 8
  %role = getelementptr inbounds %"struct.rocksdb::Cache::CacheItemHelper", ptr %5, i32 0, i32 4
  %6 = load i32, ptr %role, align 8
  br label %cond.end

cond.false:                                       ; preds = %entry
  br label %cond.end

cond.end:                                         ; preds = %cond.false, %cond.true
  %cond = phi i32 [ %6, %cond.true ], [ 13, %cond.false ]
  %conv = sext i32 %cond to i64
  store i64 %conv, ptr %role_idx, align 8
  %entry_counts = getelementptr inbounds %"struct.rocksdb::InternalStats::CacheEntryRoleStats", ptr %3, i32 0, i32 6
  %7 = load i64, ptr %role_idx, align 8
  %call = call noundef nonnull align 8 dereferenceable(8) ptr @_ZNSt5arrayImLm14EEixEm(ptr noundef nonnull align 8 dereferenceable(112) %entry_counts, i64 noundef %7) #3
  %8 = load i64, ptr %call, align 8
  %inc = add i64 %8, 1
  store i64 %inc, ptr %call, align 8
  %9 = load i64, ptr %charge.addr, align 8
  %total_charges = getelementptr inbounds %"struct.rocksdb::InternalStats::CacheEntryRoleStats", ptr %3, i32 0, i32 5
  %10 = load i64, ptr %role_idx, align 8
  %call3 = call noundef nonnull align 8 dereferenceable(8) ptr @_ZNSt5arrayImLm14EEixEm(ptr noundef nonnull align 8 dereferenceable(112) %total_charges, i64 noundef %10) #3
  %11 = load i64, ptr %call3, align 8
  %add = add i64 %11, %9
  store i64 %add, ptr %call3, align 8
  ret void
}

; Function Attrs: mustprogress nounwind uwtable
define linkonce_odr noundef ptr @_ZNKSt9_Any_data9_M_accessEv(ptr noundef nonnull align 8 dereferenceable(16) %this) #1 comdat align 2 {
entry:
  %this.addr = alloca ptr, align 8
  store ptr %this, ptr %this.addr, align 8
  %this1 = load ptr, ptr %this.addr, align 8
  %arrayidx = getelementptr inbounds [16 x i8], ptr %this1, i64 0, i64 0
  ret ptr %arrayidx
}

; Function Attrs: mustprogress uwtable
define internal void @"_ZSt13__invoke_implIvRZN7rocksdb13InternalStats19CacheEntryRoleStats16GetEntryCallbackEvE3$_0JRKNS0_5SliceEPvmPKNS0_5Cache15CacheItemHelperEEET_St14__invoke_otherOT0_DpOT1_"(ptr noundef nonnull align 8 dereferenceable(8) %__f, ptr noundef nonnull align 8 dereferenceable(16) %__args, ptr noundef nonnull align 8 dereferenceable(8) %__args1, ptr noundef nonnull align 8 dereferenceable(8) %__args3, ptr noundef nonnull align 8 dereferenceable(8) %__args5) #0 {
entry:
  %__f.addr = alloca ptr, align 8
  %__args.addr = alloca ptr, align 8
  %__args.addr2 = alloca ptr, align 8
  %__args.addr4 = alloca ptr, align 8
  %__args.addr6 = alloca ptr, align 8
  store ptr %__f, ptr %__f.addr, align 8
  store ptr %__args, ptr %__args.addr, align 8
  store ptr %__args1, ptr %__args.addr2, align 8
  store ptr %__args3, ptr %__args.addr4, align 8
  store ptr %__args5, ptr %__args.addr6, align 8
  %0 = load ptr, ptr %__f.addr, align 8
  %1 = load ptr, ptr %__args.addr, align 8
  %2 = load ptr, ptr %__args.addr2, align 8
  %3 = load ptr, ptr %2, align 8
  %4 = load ptr, ptr %__args.addr4, align 8
  %5 = load i64, ptr %4, align 8
  %6 = load ptr, ptr %__args.addr6, align 8
  %7 = load ptr, ptr %6, align 8
  call void @"_ZZN7rocksdb13InternalStats19CacheEntryRoleStats16GetEntryCallbackEvENK3$_0clERKNS_5SliceEPvmPKNS_5Cache15CacheItemHelperE"(ptr noundef nonnull align 8 dereferenceable(8) %0, ptr noundef nonnull align 8 dereferenceable(16) %1, ptr noundef %3, i64 noundef %5, ptr noundef %7)
  ret void
}

; Function Attrs: mustprogress nounwind uwtable
define internal noundef nonnull align 8 dereferenceable(8) ptr @"_ZNKSt9_Any_data9_M_accessIZN7rocksdb13InternalStats19CacheEntryRoleStats16GetEntryCallbackEvE3$_0EERKT_v"(ptr noundef nonnull align 8 dereferenceable(16) %this) #1 align 2 {
entry:
  %this.addr = alloca ptr, align 8
  store ptr %this, ptr %this.addr, align 8
  %this1 = load ptr, ptr %this.addr, align 8
  %call = call noundef ptr @_ZNKSt9_Any_data9_M_accessEv(ptr noundef nonnull align 8 dereferenceable(16) %this1) #3
  ret ptr %call
}

; Function Attrs: mustprogress uwtable
define internal void @"_ZSt10__invoke_rIvRZN7rocksdb13InternalStats19CacheEntryRoleStats16GetEntryCallbackEvE3$_0JRKNS0_5SliceEPvmPKNS0_5Cache15CacheItemHelperEEENSt9enable_ifIX16is_invocable_r_vIT_T0_DpT1_EESE_E4typeEOSF_DpOSG_"(ptr noundef nonnull align 8 dereferenceable(8) %__fn, ptr noundef nonnull align 8 dereferenceable(16) %__args, ptr noundef nonnull align 8 dereferenceable(8) %__args1, ptr noundef nonnull align 8 dereferenceable(8) %__args3, ptr noundef nonnull align 8 dereferenceable(8) %__args5) #0 {
entry:
  %__fn.addr = alloca ptr, align 8
  %__args.addr = alloca ptr, align 8
  %__args.addr2 = alloca ptr, align 8
  %__args.addr4 = alloca ptr, align 8
  %__args.addr6 = alloca ptr, align 8
  store ptr %__fn, ptr %__fn.addr, align 8
  store ptr %__args, ptr %__args.addr, align 8
  store ptr %__args1, ptr %__args.addr2, align 8
  store ptr %__args3, ptr %__args.addr4, align 8
  store ptr %__args5, ptr %__args.addr6, align 8
  %0 = load ptr, ptr %__fn.addr, align 8
  %1 = load ptr, ptr %__args.addr, align 8
  %2 = load ptr, ptr %__args.addr2, align 8
  %3 = load ptr, ptr %__args.addr4, align 8
  %4 = load ptr, ptr %__args.addr6, align 8
  call void @"_ZSt13__invoke_implIvRZN7rocksdb13InternalStats19CacheEntryRoleStats16GetEntryCallbackEvE3$_0JRKNS0_5SliceEPvmPKNS0_5Cache15CacheItemHelperEEET_St14__invoke_otherOT0_DpOT1_"(ptr noundef nonnull align 8 dereferenceable(8) %0, ptr noundef nonnull align 8 dereferenceable(16) %1, ptr noundef nonnull align 8 dereferenceable(8) %2, ptr noundef nonnull align 8 dereferenceable(8) %3, ptr noundef nonnull align 8 dereferenceable(8) %4)
  ret void
}

; Function Attrs: mustprogress nounwind uwtable
define internal noundef ptr @"_ZNSt14_Function_base13_Base_managerIZN7rocksdb13InternalStats19CacheEntryRoleStats16GetEntryCallbackEvE3$_0E14_M_get_pointerERKSt9_Any_data"(ptr noundef nonnull align 8 dereferenceable(16) %__source) #1 align 2 {
entry:
  %__source.addr = alloca ptr, align 8
  %__f = alloca ptr, align 8
  store ptr %__source, ptr %__source.addr, align 8
  %0 = load ptr, ptr %__source.addr, align 8
  %call = call noundef nonnull align 8 dereferenceable(8) ptr @"_ZNKSt9_Any_data9_M_accessIZN7rocksdb13InternalStats19CacheEntryRoleStats16GetEntryCallbackEvE3$_0EERKT_v"(ptr noundef nonnull align 8 dereferenceable(16) %0) #3
  store ptr %call, ptr %__f, align 8
  %1 = load ptr, ptr %__f, align 8
  ret ptr %1
}

; Function Attrs: mustprogress uwtable
define internal void @"_ZNSt17_Function_handlerIFvRKN7rocksdb5SliceEPvmPKNS0_5Cache15CacheItemHelperEEZNS0_13InternalStats19CacheEntryRoleStats16GetEntryCallbackEvE3$_0E9_M_invokeERKSt9_Any_dataS3_OS4_OmOS8_"(ptr noundef nonnull align 8 dereferenceable(16) %__functor, ptr noundef nonnull align 8 dereferenceable(16) %__args, ptr noundef nonnull align 8 dereferenceable(8) %__args1, ptr noundef nonnull align 8 dereferenceable(8) %__args3, ptr noundef nonnull align 8 dereferenceable(8) %__args5) #0 align 2 {
entry:
  %__functor.addr = alloca ptr, align 8
  %__args.addr = alloca ptr, align 8
  %__args.addr2 = alloca ptr, align 8
  %__args.addr4 = alloca ptr, align 8
  %__args.addr6 = alloca ptr, align 8
  store ptr %__functor, ptr %__functor.addr, align 8
  store ptr %__args, ptr %__args.addr, align 8
  store ptr %__args1, ptr %__args.addr2, align 8
  store ptr %__args3, ptr %__args.addr4, align 8
  store ptr %__args5, ptr %__args.addr6, align 8
  %0 = load ptr, ptr %__functor.addr, align 8
  %call = call noundef ptr @"_ZNSt14_Function_base13_Base_managerIZN7rocksdb13InternalStats19CacheEntryRoleStats16GetEntryCallbackEvE3$_0E14_M_get_pointerERKSt9_Any_data"(ptr noundef nonnull align 8 dereferenceable(16) %0) #3
  %1 = load ptr, ptr %__args.addr, align 8
  %2 = load ptr, ptr %__args.addr2, align 8
  %3 = load ptr, ptr %__args.addr4, align 8
  %4 = load ptr, ptr %__args.addr6, align 8
  call void @"_ZSt10__invoke_rIvRZN7rocksdb13InternalStats19CacheEntryRoleStats16GetEntryCallbackEvE3$_0JRKNS0_5SliceEPvmPKNS0_5Cache15CacheItemHelperEEENSt9enable_ifIX16is_invocable_r_vIT_T0_DpT1_EESE_E4typeEOSF_DpOSG_"(ptr noundef nonnull align 8 dereferenceable(8) %call, ptr noundef nonnull align 8 dereferenceable(16) %1, ptr noundef nonnull align 8 dereferenceable(8) %2, ptr noundef nonnull align 8 dereferenceable(8) %3, ptr noundef nonnull align 8 dereferenceable(8) %4)
  ret void
}