; Function Attrs: mustprogress nofree norecurse nosync nounwind willreturn memory(readwrite, inaccessiblemem: none) uwtable
define internal void @"_ZNSt17_Function_handlerIFvRKN7rocksdb5SliceEPvmPKNS0_5Cache15CacheItemHelperEEZNS0_13InternalStats19CacheEntryRoleStats16GetEntryCallbackEvE3$_0E9_M_invokeERKSt9_Any_dataS3_OS4_OmOS8_"(ptr nocapture noundef nonnull readonly align 8 dereferenceable(16) %__functor, ptr nocapture nonnull readnone align 8 %__args, ptr nocapture nonnull readnone align 8 %__args1, ptr nocapture noundef nonnull readonly align 8 dereferenceable(8) %__args3, ptr nocapture noundef nonnull readonly align 8 dereferenceable(8) %__args5) #22 align 2 {
entry:
  %call.val = load ptr, ptr %__functor, align 8
  %__args3.val = load i64, ptr %__args3, align 8
  %__args5.val = load ptr, ptr %__args5, align 8
  %tobool.not.i.i.i = icmp eq ptr %__args5.val, null
  br i1 %tobool.not.i.i.i, label %"_ZSt10__invoke_rIvRZN7rocksdb13InternalStats19CacheEntryRoleStats16GetEntryCallbackEvE3$_0JRKNS0_5SliceEPvmPKNS0_5Cache15CacheItemHelperEEENSt9enable_ifIX16is_invocable_r_vIT_T0_DpT1_EESE_E4typeEOSF_DpOSG_.exit", label %cond.true.i.i.i

cond.true.i.i.i:                                  ; preds = %entry
  %role.i.i.i = getelementptr inbounds i8, ptr %__args5.val, i64 32
  %0 = load i32, ptr %role.i.i.i, align 8
  %1 = sext i32 %0 to i64
  br label %"_ZSt10__invoke_rIvRZN7rocksdb13InternalStats19CacheEntryRoleStats16GetEntryCallbackEvE3$_0JRKNS0_5SliceEPvmPKNS0_5Cache15CacheItemHelperEEENSt9enable_ifIX16is_invocable_r_vIT_T0_DpT1_EESE_E4typeEOSF_DpOSG_.exit"

"_ZSt10__invoke_rIvRZN7rocksdb13InternalStats19CacheEntryRoleStats16GetEntryCallbackEvE3$_0JRKNS0_5SliceEPvmPKNS0_5Cache15CacheItemHelperEEENSt9enable_ifIX16is_invocable_r_vIT_T0_DpT1_EESE_E4typeEOSF_DpOSG_.exit": ; preds = %entry, %cond.true.i.i.i
  %cond.i.i.i = phi i64 [ %1, %cond.true.i.i.i ], [ 13, %entry ]
  %entry_counts.i.i.i = getelementptr inbounds i8, ptr %call.val, i64 176
  %arrayidx.i.i.i.i.i = getelementptr inbounds [14 x i64], ptr %entry_counts.i.i.i, i64 0, i64 %cond.i.i.i
  %2 = load i64, ptr %arrayidx.i.i.i.i.i, align 8
  %inc.i.i.i = add i64 %2, 1
  store i64 %inc.i.i.i, ptr %arrayidx.i.i.i.i.i, align 8
  %total_charges.i.i.i = getelementptr inbounds i8, ptr %call.val, i64 64
  %arrayidx.i.i3.i.i.i = getelementptr inbounds [14 x i64], ptr %total_charges.i.i.i, i64 0, i64 %cond.i.i.i
  %3 = load i64, ptr %arrayidx.i.i3.i.i.i, align 8
  %add.i.i.i = add i64 %3, %__args3.val
  store i64 %add.i.i.i, ptr %arrayidx.i.i3.i.i.i, align 8
  ret void
}